ARM GAS  C:\Users\stryk\AppData\Local\Temp\ccbTPjts.s 			page 1


   1              		.cpu cortex-m4
   2              		.arch armv7e-m
   3              		.fpu fpv4-sp-d16
   4              		.eabi_attribute 27, 1
   5              		.eabi_attribute 28, 1
   6              		.eabi_attribute 20, 1
   7              		.eabi_attribute 21, 1
   8              		.eabi_attribute 23, 3
   9              		.eabi_attribute 24, 1
  10              		.eabi_attribute 25, 1
  11              		.eabi_attribute 26, 1
  12              		.eabi_attribute 30, 6
  13              		.eabi_attribute 34, 1
  14              		.eabi_attribute 18, 4
  15              		.file	"stm32f4xx_hal_msp.c"
  16              		.text
  17              	.Ltext0:
  18              		.cfi_sections	.debug_frame
  19              		.section	.text.HAL_MspInit,"ax",%progbits
  20              		.align	1
  21              		.global	HAL_MspInit
  22              		.syntax unified
  23              		.thumb
  24              		.thumb_func
  26              	HAL_MspInit:
  27              	.LFB130:
  28              		.file 1 "Core/Src/stm32f4xx_hal_msp.c"
   1:Core/Src/stm32f4xx_hal_msp.c **** #include "main.h"
   2:Core/Src/stm32f4xx_hal_msp.c **** 
   3:Core/Src/stm32f4xx_hal_msp.c **** void HAL_TIM_MspPostInit(TIM_HandleTypeDef *htim);
   4:Core/Src/stm32f4xx_hal_msp.c ****                     /**
   5:Core/Src/stm32f4xx_hal_msp.c ****   * Initializes the Global MSP.
   6:Core/Src/stm32f4xx_hal_msp.c ****   */
   7:Core/Src/stm32f4xx_hal_msp.c **** void HAL_MspInit(void)
   8:Core/Src/stm32f4xx_hal_msp.c **** {
  29              		.loc 1 8 1
  30              		.cfi_startproc
  31              		@ args = 0, pretend = 0, frame = 8
  32              		@ frame_needed = 1, uses_anonymous_args = 0
  33              		@ link register save eliminated.
  34 0000 80B4     		push	{r7}
  35              	.LCFI0:
  36              		.cfi_def_cfa_offset 4
  37              		.cfi_offset 7, -4
  38 0002 83B0     		sub	sp, sp, #12
  39              	.LCFI1:
  40              		.cfi_def_cfa_offset 16
  41 0004 00AF     		add	r7, sp, #0
  42              	.LCFI2:
  43              		.cfi_def_cfa_register 7
  44              	.LBB2:
   9:Core/Src/stm32f4xx_hal_msp.c ****   __HAL_RCC_SYSCFG_CLK_ENABLE();
  45              		.loc 1 9 3
  46 0006 0023     		movs	r3, #0
  47 0008 7B60     		str	r3, [r7, #4]
  48 000a 104B     		ldr	r3, .L2
  49 000c 5B6C     		ldr	r3, [r3, #68]
ARM GAS  C:\Users\stryk\AppData\Local\Temp\ccbTPjts.s 			page 2


  50 000e 0F4A     		ldr	r2, .L2
  51 0010 43F48043 		orr	r3, r3, #16384
  52 0014 5364     		str	r3, [r2, #68]
  53 0016 0D4B     		ldr	r3, .L2
  54 0018 5B6C     		ldr	r3, [r3, #68]
  55 001a 03F48043 		and	r3, r3, #16384
  56 001e 7B60     		str	r3, [r7, #4]
  57 0020 7B68     		ldr	r3, [r7, #4]
  58              	.LBE2:
  59              	.LBB3:
  10:Core/Src/stm32f4xx_hal_msp.c ****   __HAL_RCC_PWR_CLK_ENABLE();
  60              		.loc 1 10 3
  61 0022 0023     		movs	r3, #0
  62 0024 3B60     		str	r3, [r7]
  63 0026 094B     		ldr	r3, .L2
  64 0028 1B6C     		ldr	r3, [r3, #64]
  65 002a 084A     		ldr	r2, .L2
  66 002c 43F08053 		orr	r3, r3, #268435456
  67 0030 1364     		str	r3, [r2, #64]
  68 0032 064B     		ldr	r3, .L2
  69 0034 1B6C     		ldr	r3, [r3, #64]
  70 0036 03F08053 		and	r3, r3, #268435456
  71 003a 3B60     		str	r3, [r7]
  72 003c 3B68     		ldr	r3, [r7]
  73              	.LBE3:
  11:Core/Src/stm32f4xx_hal_msp.c **** }
  74              		.loc 1 11 1
  75 003e 00BF     		nop
  76 0040 0C37     		adds	r7, r7, #12
  77              	.LCFI3:
  78              		.cfi_def_cfa_offset 4
  79 0042 BD46     		mov	sp, r7
  80              	.LCFI4:
  81              		.cfi_def_cfa_register 13
  82              		@ sp needed
  83 0044 5DF8047B 		ldr	r7, [sp], #4
  84              	.LCFI5:
  85              		.cfi_restore 7
  86              		.cfi_def_cfa_offset 0
  87 0048 7047     		bx	lr
  88              	.L3:
  89 004a 00BF     		.align	2
  90              	.L2:
  91 004c 00380240 		.word	1073887232
  92              		.cfi_endproc
  93              	.LFE130:
  95              		.section	.text.HAL_TIM_PWM_MspInit,"ax",%progbits
  96              		.align	1
  97              		.global	HAL_TIM_PWM_MspInit
  98              		.syntax unified
  99              		.thumb
 100              		.thumb_func
 102              	HAL_TIM_PWM_MspInit:
 103              	.LFB131:
  12:Core/Src/stm32f4xx_hal_msp.c **** 
  13:Core/Src/stm32f4xx_hal_msp.c **** void HAL_TIM_PWM_MspInit(TIM_HandleTypeDef* htim_pwm)
  14:Core/Src/stm32f4xx_hal_msp.c **** {
ARM GAS  C:\Users\stryk\AppData\Local\Temp\ccbTPjts.s 			page 3


 104              		.loc 1 14 1
 105              		.cfi_startproc
 106              		@ args = 0, pretend = 0, frame = 16
 107              		@ frame_needed = 1, uses_anonymous_args = 0
 108              		@ link register save eliminated.
 109 0000 80B4     		push	{r7}
 110              	.LCFI6:
 111              		.cfi_def_cfa_offset 4
 112              		.cfi_offset 7, -4
 113 0002 85B0     		sub	sp, sp, #20
 114              	.LCFI7:
 115              		.cfi_def_cfa_offset 24
 116 0004 00AF     		add	r7, sp, #0
 117              	.LCFI8:
 118              		.cfi_def_cfa_register 7
 119 0006 7860     		str	r0, [r7, #4]
  15:Core/Src/stm32f4xx_hal_msp.c ****   if(htim_pwm->Instance==TIM2)
 120              		.loc 1 15 14
 121 0008 7B68     		ldr	r3, [r7, #4]
 122 000a 1B68     		ldr	r3, [r3]
 123              		.loc 1 15 5
 124 000c B3F1804F 		cmp	r3, #1073741824
 125 0010 0DD1     		bne	.L6
 126              	.LBB4:
  16:Core/Src/stm32f4xx_hal_msp.c ****   {
  17:Core/Src/stm32f4xx_hal_msp.c ****     __HAL_RCC_TIM2_CLK_ENABLE();
 127              		.loc 1 17 5
 128 0012 0023     		movs	r3, #0
 129 0014 FB60     		str	r3, [r7, #12]
 130 0016 094B     		ldr	r3, .L7
 131 0018 1B6C     		ldr	r3, [r3, #64]
 132 001a 084A     		ldr	r2, .L7
 133 001c 43F00103 		orr	r3, r3, #1
 134 0020 1364     		str	r3, [r2, #64]
 135 0022 064B     		ldr	r3, .L7
 136 0024 1B6C     		ldr	r3, [r3, #64]
 137 0026 03F00103 		and	r3, r3, #1
 138 002a FB60     		str	r3, [r7, #12]
 139 002c FB68     		ldr	r3, [r7, #12]
 140              	.L6:
 141              	.LBE4:
  18:Core/Src/stm32f4xx_hal_msp.c ****   }
  19:Core/Src/stm32f4xx_hal_msp.c **** 
  20:Core/Src/stm32f4xx_hal_msp.c **** }
 142              		.loc 1 20 1
 143 002e 00BF     		nop
 144 0030 1437     		adds	r7, r7, #20
 145              	.LCFI9:
 146              		.cfi_def_cfa_offset 4
 147 0032 BD46     		mov	sp, r7
 148              	.LCFI10:
 149              		.cfi_def_cfa_register 13
 150              		@ sp needed
 151 0034 5DF8047B 		ldr	r7, [sp], #4
 152              	.LCFI11:
 153              		.cfi_restore 7
 154              		.cfi_def_cfa_offset 0
ARM GAS  C:\Users\stryk\AppData\Local\Temp\ccbTPjts.s 			page 4


 155 0038 7047     		bx	lr
 156              	.L8:
 157 003a 00BF     		.align	2
 158              	.L7:
 159 003c 00380240 		.word	1073887232
 160              		.cfi_endproc
 161              	.LFE131:
 163              		.section	.text.HAL_TIM_MspPostInit,"ax",%progbits
 164              		.align	1
 165              		.global	HAL_TIM_MspPostInit
 166              		.syntax unified
 167              		.thumb
 168              		.thumb_func
 170              	HAL_TIM_MspPostInit:
 171              	.LFB132:
  21:Core/Src/stm32f4xx_hal_msp.c **** 
  22:Core/Src/stm32f4xx_hal_msp.c **** void HAL_TIM_MspPostInit(TIM_HandleTypeDef* htim)
  23:Core/Src/stm32f4xx_hal_msp.c **** {
 172              		.loc 1 23 1
 173              		.cfi_startproc
 174              		@ args = 0, pretend = 0, frame = 32
 175              		@ frame_needed = 1, uses_anonymous_args = 0
 176 0000 80B5     		push	{r7, lr}
 177              	.LCFI12:
 178              		.cfi_def_cfa_offset 8
 179              		.cfi_offset 7, -8
 180              		.cfi_offset 14, -4
 181 0002 88B0     		sub	sp, sp, #32
 182              	.LCFI13:
 183              		.cfi_def_cfa_offset 40
 184 0004 00AF     		add	r7, sp, #0
 185              	.LCFI14:
 186              		.cfi_def_cfa_register 7
 187 0006 7860     		str	r0, [r7, #4]
  24:Core/Src/stm32f4xx_hal_msp.c ****   GPIO_InitTypeDef GPIO_InitStruct = {0};
 188              		.loc 1 24 20
 189 0008 07F10C03 		add	r3, r7, #12
 190 000c 0022     		movs	r2, #0
 191 000e 1A60     		str	r2, [r3]
 192 0010 5A60     		str	r2, [r3, #4]
 193 0012 9A60     		str	r2, [r3, #8]
 194 0014 DA60     		str	r2, [r3, #12]
 195 0016 1A61     		str	r2, [r3, #16]
  25:Core/Src/stm32f4xx_hal_msp.c ****   if(htim->Instance==TIM2)
 196              		.loc 1 25 10
 197 0018 7B68     		ldr	r3, [r7, #4]
 198 001a 1B68     		ldr	r3, [r3]
 199              		.loc 1 25 5
 200 001c B3F1804F 		cmp	r3, #1073741824
 201 0020 1DD1     		bne	.L11
 202              	.LBB5:
  26:Core/Src/stm32f4xx_hal_msp.c ****   {
  27:Core/Src/stm32f4xx_hal_msp.c ****     __HAL_RCC_GPIOA_CLK_ENABLE();
 203              		.loc 1 27 5
 204 0022 0023     		movs	r3, #0
 205 0024 BB60     		str	r3, [r7, #8]
 206 0026 104B     		ldr	r3, .L12
ARM GAS  C:\Users\stryk\AppData\Local\Temp\ccbTPjts.s 			page 5


 207 0028 1B6B     		ldr	r3, [r3, #48]
 208 002a 0F4A     		ldr	r2, .L12
 209 002c 43F00103 		orr	r3, r3, #1
 210 0030 1363     		str	r3, [r2, #48]
 211 0032 0D4B     		ldr	r3, .L12
 212 0034 1B6B     		ldr	r3, [r3, #48]
 213 0036 03F00103 		and	r3, r3, #1
 214 003a BB60     		str	r3, [r7, #8]
 215 003c BB68     		ldr	r3, [r7, #8]
 216              	.LBE5:
  28:Core/Src/stm32f4xx_hal_msp.c ****     /**TIM2 GPIO Configuration
  29:Core/Src/stm32f4xx_hal_msp.c ****     PA0-WKUP     ------> TIM2_CH1
  30:Core/Src/stm32f4xx_hal_msp.c ****     PA1     ------> TIM2_CH2
  31:Core/Src/stm32f4xx_hal_msp.c ****     */
  32:Core/Src/stm32f4xx_hal_msp.c ****     GPIO_InitStruct.Pin = GPIO_PIN_0|GPIO_PIN_1;
 217              		.loc 1 32 25
 218 003e 0323     		movs	r3, #3
 219 0040 FB60     		str	r3, [r7, #12]
  33:Core/Src/stm32f4xx_hal_msp.c ****     GPIO_InitStruct.Mode = GPIO_MODE_AF_PP;
 220              		.loc 1 33 26
 221 0042 0223     		movs	r3, #2
 222 0044 3B61     		str	r3, [r7, #16]
  34:Core/Src/stm32f4xx_hal_msp.c ****     GPIO_InitStruct.Pull = GPIO_NOPULL;
 223              		.loc 1 34 26
 224 0046 0023     		movs	r3, #0
 225 0048 7B61     		str	r3, [r7, #20]
  35:Core/Src/stm32f4xx_hal_msp.c ****     GPIO_InitStruct.Speed = GPIO_SPEED_FREQ_LOW;
 226              		.loc 1 35 27
 227 004a 0023     		movs	r3, #0
 228 004c BB61     		str	r3, [r7, #24]
  36:Core/Src/stm32f4xx_hal_msp.c ****     GPIO_InitStruct.Alternate = GPIO_AF1_TIM2;
 229              		.loc 1 36 31
 230 004e 0123     		movs	r3, #1
 231 0050 FB61     		str	r3, [r7, #28]
  37:Core/Src/stm32f4xx_hal_msp.c ****     HAL_GPIO_Init(GPIOA, &GPIO_InitStruct);
 232              		.loc 1 37 5
 233 0052 07F10C03 		add	r3, r7, #12
 234 0056 1946     		mov	r1, r3
 235 0058 0448     		ldr	r0, .L12+4
 236 005a FFF7FEFF 		bl	HAL_GPIO_Init
 237              	.L11:
  38:Core/Src/stm32f4xx_hal_msp.c **** 
  39:Core/Src/stm32f4xx_hal_msp.c ****   /* USER CODE BEGIN TIM2_MspPostInit 1 */
  40:Core/Src/stm32f4xx_hal_msp.c **** 
  41:Core/Src/stm32f4xx_hal_msp.c ****   /* USER CODE END TIM2_MspPostInit 1 */
  42:Core/Src/stm32f4xx_hal_msp.c ****   }
  43:Core/Src/stm32f4xx_hal_msp.c **** 
  44:Core/Src/stm32f4xx_hal_msp.c **** }
 238              		.loc 1 44 1
 239 005e 00BF     		nop
 240 0060 2037     		adds	r7, r7, #32
 241              	.LCFI15:
 242              		.cfi_def_cfa_offset 8
 243 0062 BD46     		mov	sp, r7
 244              	.LCFI16:
 245              		.cfi_def_cfa_register 13
 246              		@ sp needed
ARM GAS  C:\Users\stryk\AppData\Local\Temp\ccbTPjts.s 			page 6


 247 0064 80BD     		pop	{r7, pc}
 248              	.L13:
 249 0066 00BF     		.align	2
 250              	.L12:
 251 0068 00380240 		.word	1073887232
 252 006c 00000240 		.word	1073872896
 253              		.cfi_endproc
 254              	.LFE132:
 256              		.section	.text.HAL_TIM_PWM_MspDeInit,"ax",%progbits
 257              		.align	1
 258              		.global	HAL_TIM_PWM_MspDeInit
 259              		.syntax unified
 260              		.thumb
 261              		.thumb_func
 263              	HAL_TIM_PWM_MspDeInit:
 264              	.LFB133:
  45:Core/Src/stm32f4xx_hal_msp.c **** /**
  46:Core/Src/stm32f4xx_hal_msp.c **** * @brief TIM_PWM MSP De-Initialization
  47:Core/Src/stm32f4xx_hal_msp.c **** * This function freeze the hardware resources used in this example
  48:Core/Src/stm32f4xx_hal_msp.c **** * @param htim_pwm: TIM_PWM handle pointer
  49:Core/Src/stm32f4xx_hal_msp.c **** * @retval None
  50:Core/Src/stm32f4xx_hal_msp.c **** */
  51:Core/Src/stm32f4xx_hal_msp.c **** void HAL_TIM_PWM_MspDeInit(TIM_HandleTypeDef* htim_pwm)
  52:Core/Src/stm32f4xx_hal_msp.c **** {
 265              		.loc 1 52 1
 266              		.cfi_startproc
 267              		@ args = 0, pretend = 0, frame = 8
 268              		@ frame_needed = 1, uses_anonymous_args = 0
 269              		@ link register save eliminated.
 270 0000 80B4     		push	{r7}
 271              	.LCFI17:
 272              		.cfi_def_cfa_offset 4
 273              		.cfi_offset 7, -4
 274 0002 83B0     		sub	sp, sp, #12
 275              	.LCFI18:
 276              		.cfi_def_cfa_offset 16
 277 0004 00AF     		add	r7, sp, #0
 278              	.LCFI19:
 279              		.cfi_def_cfa_register 7
 280 0006 7860     		str	r0, [r7, #4]
  53:Core/Src/stm32f4xx_hal_msp.c ****   if(htim_pwm->Instance==TIM2)
 281              		.loc 1 53 14
 282 0008 7B68     		ldr	r3, [r7, #4]
 283 000a 1B68     		ldr	r3, [r3]
 284              		.loc 1 53 5
 285 000c B3F1804F 		cmp	r3, #1073741824
 286 0010 05D1     		bne	.L16
  54:Core/Src/stm32f4xx_hal_msp.c ****   {
  55:Core/Src/stm32f4xx_hal_msp.c ****   /* USER CODE BEGIN TIM2_MspDeInit 0 */
  56:Core/Src/stm32f4xx_hal_msp.c **** 
  57:Core/Src/stm32f4xx_hal_msp.c ****   /* USER CODE END TIM2_MspDeInit 0 */
  58:Core/Src/stm32f4xx_hal_msp.c ****     /* Peripheral clock disable */
  59:Core/Src/stm32f4xx_hal_msp.c ****     __HAL_RCC_TIM2_CLK_DISABLE();
 287              		.loc 1 59 5
 288 0012 064B     		ldr	r3, .L17
 289 0014 1B6C     		ldr	r3, [r3, #64]
 290 0016 054A     		ldr	r2, .L17
ARM GAS  C:\Users\stryk\AppData\Local\Temp\ccbTPjts.s 			page 7


 291 0018 23F00103 		bic	r3, r3, #1
 292 001c 1364     		str	r3, [r2, #64]
 293              	.L16:
  60:Core/Src/stm32f4xx_hal_msp.c ****   /* USER CODE BEGIN TIM2_MspDeInit 1 */
  61:Core/Src/stm32f4xx_hal_msp.c **** 
  62:Core/Src/stm32f4xx_hal_msp.c ****   /* USER CODE END TIM2_MspDeInit 1 */
  63:Core/Src/stm32f4xx_hal_msp.c ****   }
  64:Core/Src/stm32f4xx_hal_msp.c **** 
  65:Core/Src/stm32f4xx_hal_msp.c **** }
 294              		.loc 1 65 1
 295 001e 00BF     		nop
 296 0020 0C37     		adds	r7, r7, #12
 297              	.LCFI20:
 298              		.cfi_def_cfa_offset 4
 299 0022 BD46     		mov	sp, r7
 300              	.LCFI21:
 301              		.cfi_def_cfa_register 13
 302              		@ sp needed
 303 0024 5DF8047B 		ldr	r7, [sp], #4
 304              	.LCFI22:
 305              		.cfi_restore 7
 306              		.cfi_def_cfa_offset 0
 307 0028 7047     		bx	lr
 308              	.L18:
 309 002a 00BF     		.align	2
 310              	.L17:
 311 002c 00380240 		.word	1073887232
 312              		.cfi_endproc
 313              	.LFE133:
 315              		.text
 316              	.Letext0:
 317              		.file 2 "c:\\dev\\micro\\tools\\arm-gnu-toolchain-11.3.rel1-mingw-w64-i686-arm-none-eabi\\arm-none
 318              		.file 3 "c:\\dev\\micro\\tools\\arm-gnu-toolchain-11.3.rel1-mingw-w64-i686-arm-none-eabi\\arm-none
 319              		.file 4 "Drivers/CMSIS/Device/ST/STM32F4xx/Include/stm32f411xe.h"
 320              		.file 5 "Drivers/STM32F4xx_HAL_Driver/Inc/stm32f4xx_hal_def.h"
 321              		.file 6 "Drivers/STM32F4xx_HAL_Driver/Inc/stm32f4xx_hal_gpio.h"
 322              		.file 7 "Drivers/STM32F4xx_HAL_Driver/Inc/stm32f4xx_hal_dma.h"
 323              		.file 8 "Drivers/STM32F4xx_HAL_Driver/Inc/stm32f4xx_hal_tim.h"
ARM GAS  C:\Users\stryk\AppData\Local\Temp\ccbTPjts.s 			page 8

